; Function Attrs: mustprogress nofree norecurse nosync nounwind willreturn memory(argmem: read) uwtable
define noundef ptr @_ZNK6icu_7725RelativeDateTimeCacheData24getRelativeUnitFormatterEi17UDateRelativeUnitii(ptr noundef nonnull readonly align 8 captures(none) dereferenceable(23152) %0, i32 noundef %1, i32 noundef %2, i32 noundef %3, i32 noundef %4) local_unnamed_addr #11 align 2 {
  %6 = icmp ult i32 %2, 7
  br i1 %6, label %switch.lookup, label %_ZNK6icu_7725RelativeDateTimeCacheData32getRelativeDateTimeUnitFormatterEi21URelativeDateTimeUnitii.exit

switch.lookup:                                    ; preds = %5
  %7 = zext nneg i32 %2 to i64
  %switch.gep = getelementptr inbounds nuw [7 x i64], ptr @switch.table._ZNK6icu_7725RelativeDateTimeFormatter10formatImplEd14UDateDirection17UDateRelativeUnitRNS_29FormattedRelativeDateTimeDataER10UErrorCode, i64 0, i64 %7
  %switch.load = load i64, ptr %switch.gep, align 8
  %8 = getelementptr inbounds nuw i8, ptr %0, i64 17304
  %9 = sext i32 %3 to i64
  %10 = getelementptr inbounds nuw i8, ptr %0, i64 23128
  br label %11

11:                                               ; preds = %20, %switch.lookup
  %.015.i = phi i32 [ %4, %switch.lookup ], [ 5, %20 ]
  %12 = sext i32 %.015.i to i64
  br label %13

13:                                               ; preds = %17, %11
  %.014.i = phi i32 [ %1, %11 ], [ %19, %17 ]
  %14 = sext i32 %.014.i to i64
  %15 = getelementptr inbounds [3 x [15 x [2 x [8 x ptr]]]], ptr %8, i64 0, i64 %14, i64 %switch.load, i64 %9, i64 %12
  %16 = load ptr, ptr %15, align 8, !tbaa !30
  %.not.i = icmp eq ptr %16, null
  br i1 %.not.i, label %17, label %_ZNK6icu_7725RelativeDateTimeCacheData32getRelativeDateTimeUnitFormatterEi21URelativeDateTimeUnitii.exit

17:                                               ; preds = %13
  %18 = getelementptr inbounds [3 x i32], ptr %10, i64 0, i64 %14
  %19 = load i32, ptr %18, align 4, !tbaa !12
  %.not20.i = icmp eq i32 %19, -1
  br i1 %.not20.i, label %20, label %13, !llvm.loop !34

20:                                               ; preds = %17
  %21 = icmp eq i32 %.015.i, 5
  br i1 %21, label %_ZNK6icu_7725RelativeDateTimeCacheData32getRelativeDateTimeUnitFormatterEi21URelativeDateTimeUnitii.exit, label %11

_ZNK6icu_7725RelativeDateTimeCacheData32getRelativeDateTimeUnitFormatterEi21URelativeDateTimeUnitii.exit: ; preds = %20, %13, %5
  %.06 = phi ptr [ null, %5 ], [ %16, %13 ], [ null, %20 ]
  ret ptr %.06
}